; Function Attrs: mustprogress nounwind uwtable
define dso_local { i32, ptr } @_ZN4llvm3sys2fs9real_pathERKNS_5TwineERNS_15SmallVectorImplIcEEb(ptr noundef nonnull align 8 dereferenceable(34) %0, ptr noundef nonnull align 8 dereferenceable(24) %1, i1 noundef zeroext %2) local_unnamed_addr #0 {
  %4 = alloca %"class.llvm::SmallString.10", align 8
  %5 = alloca %"class.llvm::Twine", align 8
  %6 = alloca %"class.llvm::SmallString.10", align 8
  %7 = alloca [4096 x i8], align 16
  %8 = tail call noundef i64 @_ZNK4llvm15SmallVectorBaseImE4sizeEv(ptr noundef nonnull align 8 dereferenceable(24) %1) #30
  %9 = getelementptr inbounds nuw i8, ptr %1, i64 8
  store i64 0, ptr %9, align 8
  %10 = getelementptr inbounds nuw i8, ptr %0, i64 32
  %11 = load i8, ptr %10, align 8
  %spec.select.i.i = icmp ult i8 %11, 2
  br i1 %spec.select.i.i, label %12, label %14

12:                                               ; preds = %3
  %13 = tail call noundef nonnull align 8 dereferenceable(8) ptr @_ZNSt3_V215system_categoryEv() #33
  br label %_ZN4llvm11SmallStringILj128EED2Ev.exit

14:                                               ; preds = %3
  br i1 %2, label %15, label %29

15:                                               ; preds = %14
  %16 = getelementptr inbounds i8, ptr %4, i64 24
  call void @_ZN4llvm15SmallVectorBaseImEC2EPvm(ptr noundef nonnull align 8 dereferenceable(24) %4, ptr noundef nonnull %16, i64 noundef 128) #30
  call void @_ZNK4llvm5Twine8toVectorERNS_15SmallVectorImplIcEE(ptr noundef nonnull align 8 dereferenceable(34) %0, ptr noundef nonnull align 8 dereferenceable(24) %4) #30
  call fastcc void @_ZN4llvm3sys2fsL15expandTildeExprERNS_15SmallVectorImplIcEE(ptr noundef nonnull align 8 dereferenceable(24) %4)
  %17 = getelementptr inbounds nuw i8, ptr %5, i64 32
  store i8 5, ptr %17, align 8
  %18 = getelementptr inbounds nuw i8, ptr %5, i64 33
  store i8 1, ptr %18, align 1
  %19 = load ptr, ptr %4, align 8
  store ptr %19, ptr %5, align 8
  %20 = call noundef i64 @_ZNK4llvm15SmallVectorBaseImE4sizeEv(ptr noundef nonnull align 8 dereferenceable(24) %4) #30
  %21 = getelementptr inbounds nuw i8, ptr %5, i64 8
  store i64 %20, ptr %21, align 8
  %22 = call { i32, ptr } @_ZN4llvm3sys2fs9real_pathERKNS_5TwineERNS_15SmallVectorImplIcEEb(ptr noundef nonnull align 8 dereferenceable(34) %5, ptr noundef nonnull align 8 dereferenceable(24) %1, i1 noundef zeroext false)
  %23 = extractvalue { i32, ptr } %22, 0
  %24 = extractvalue { i32, ptr } %22, 1
  %25 = call noundef i64 @_ZNK4llvm15SmallVectorBaseImE4sizeEv(ptr noundef nonnull align 8 dereferenceable(24) %4) #30
  %26 = load ptr, ptr %4, align 8
  %27 = icmp eq ptr %26, %16
  br i1 %27, label %_ZN4llvm11SmallStringILj128EED2Ev.exit, label %28

28:                                               ; preds = %15
  call void @free(ptr noundef %26) #30
  br label %_ZN4llvm11SmallStringILj128EED2Ev.exit

29:                                               ; preds = %14
  %30 = getelementptr inbounds i8, ptr %6, i64 24
  call void @_ZN4llvm15SmallVectorBaseImEC2EPvm(ptr noundef nonnull align 8 dereferenceable(24) %6, ptr noundef nonnull %30, i64 noundef 128) #30
  %31 = call { ptr, i64 } @_ZNK4llvm5Twine25toNullTerminatedStringRefERNS_15SmallVectorImplIcEE(ptr noundef nonnull align 8 dereferenceable(34) %0, ptr noundef nonnull align 8 dereferenceable(24) %6) #30
  %32 = extractvalue { ptr, i64 } %31, 0
  %33 = call ptr @realpath(ptr noundef %32, ptr noundef nonnull %7) #30
  %34 = icmp eq ptr %33, null
  br i1 %34, label %35, label %39

35:                                               ; preds = %29
  %36 = tail call ptr @__errno_location() #33
  %37 = load i32, ptr %36, align 4
  %38 = tail call noundef nonnull align 8 dereferenceable(8) ptr @_ZNSt3_V216generic_categoryEv() #33
  br label %43

39:                                               ; preds = %29
  %40 = call i64 @strlen(ptr noundef nonnull dereferenceable(1) %7) #29
  %41 = getelementptr inbounds i8, ptr %7, i64 %40
  call void @_ZN4llvm15SmallVectorImplIcE6appendIPcvEEvT_S4_(ptr noundef nonnull align 8 dereferenceable(24) %1, ptr noundef nonnull %7, ptr noundef nonnull %41)
  %42 = tail call noundef nonnull align 8 dereferenceable(8) ptr @_ZNSt3_V215system_categoryEv() #33
  br label %43

43:                                               ; preds = %39, %35
  %.sroa.07.1 = phi i32 [ %37, %35 ], [ 0, %39 ]
  %.sroa.5.1 = phi ptr [ %38, %35 ], [ %42, %39 ]
  %44 = call noundef i64 @_ZNK4llvm15SmallVectorBaseImE4sizeEv(ptr noundef nonnull align 8 dereferenceable(24) %6) #30
  %45 = load ptr, ptr %6, align 8
  %46 = icmp eq ptr %45, %30
  br i1 %46, label %_ZN4llvm11SmallStringILj128EED2Ev.exit, label %47

47:                                               ; preds = %43
  call void @free(ptr noundef %45) #30
  br label %_ZN4llvm11SmallStringILj128EED2Ev.exit

_ZN4llvm11SmallStringILj128EED2Ev.exit:           ; preds = %47, %43, %28, %15, %12
  %.sroa.07.0 = phi i32 [ 0, %12 ], [ %23, %15 ], [ %23, %28 ], [ %.sroa.07.1, %43 ], [ %.sroa.07.1, %47 ]
  %.sroa.5.0 = phi ptr [ %13, %12 ], [ %24, %15 ], [ %24, %28 ], [ %.sroa.5.1, %43 ], [ %.sroa.5.1, %47 ]
  %.fca.0.insert = insertvalue { i32, ptr } poison, i32 %.sroa.07.0, 0
  %.fca.1.insert = insertvalue { i32, ptr } %.fca.0.insert, ptr %.sroa.5.0, 1
  ret { i32, ptr } %.fca.1.insert
}